target datalayout = "e-m:e-p270:32:32-p271:32:32-p272:64:64-i64:64-i128:128-f80:128-n8:16:32:64-S128"
target triple = "x86_64-pc-linux-gnu"

%struct._zend_array = type { %struct._zend_refcounted_h, %union.anon.4, i32, %union.anon.6, i32, i32, i32, i32, i64, ptr }
%struct._zend_refcounted_h = type { i32, %union.anon.3 }
%union.anon.3 = type { i32 }
%union.anon.4 = type { i32 }
%union.anon.6 = type { ptr }
%struct._phar_metadata_tracker = type { %struct._zval_struct, ptr }
%struct._zval_struct = type { %union._zend_value, %union.anon, %union.anon.2 }
%union._zend_value = type { i64 }
%union.anon = type { i32 }
%union.anon.2 = type { i32 }
%struct._phar_archive_data = type { ptr, i32, ptr, i32, ptr, i32, [12 x i8], i64, %struct._zend_array, %struct._zend_array, %struct._zend_array, i32, i32, i32, ptr, ptr, i32, i32, i32, ptr, %struct._phar_metadata_tracker, i32, i16 }

@.str.50 = private unnamed_addr constant [127 x i8] c"phar zip error: phar \22%s\22 already exists as a regular phar and must be deleted from disk prior to creating as a zip-based phar\00", align 1

; Function Attrs: nounwind uwtable
define hidden i32 @phar_open_or_create_zip(ptr noundef %0, i64 noundef %1, ptr noundef %2, i64 noundef %3, i32 noundef %4, i32 noundef %5, ptr noundef %6, ptr noundef %7) #0 {
  %9 = alloca i32, align 4
  %10 = alloca ptr, align 8
  %11 = alloca i64, align 8
  %12 = alloca ptr, align 8
  %13 = alloca i64, align 8
  %14 = alloca i32, align 4
  %15 = alloca i32, align 4
  %16 = alloca ptr, align 8
  %17 = alloca ptr, align 8
  %18 = alloca ptr, align 8
  %19 = alloca i32, align 4
  %20 = alloca i32, align 4
  store ptr %0, ptr %10, align 8, !tbaa !9
  store i64 %1, ptr %11, align 8, !tbaa !11
  store ptr %2, ptr %12, align 8, !tbaa !9
  store i64 %3, ptr %13, align 8, !tbaa !11
  store i32 %4, ptr %14, align 4, !tbaa !52
  store i32 %5, ptr %15, align 4, !tbaa !52
  store ptr %6, ptr %16, align 8, !tbaa !13
  store ptr %7, ptr %17, align 8, !tbaa !15
  call void @llvm.lifetime.start.p0(i64 8, ptr %18) #14
  call void @llvm.lifetime.start.p0(i64 4, ptr %19) #14
  %21 = load ptr, ptr %10, align 8, !tbaa !9
  %22 = load i64, ptr %11, align 8, !tbaa !11
  %23 = load ptr, ptr %12, align 8, !tbaa !9
  %24 = load i64, ptr %13, align 8, !tbaa !11
  %25 = load i32, ptr %14, align 4, !tbaa !52
  %26 = icmp ne i32 %25, 0
  %27 = load i32, ptr %15, align 4, !tbaa !52
  %28 = load ptr, ptr %17, align 8, !tbaa !15
  %29 = call i32 @phar_create_or_parse_filename(ptr noundef %21, i64 noundef %22, ptr noundef %23, i64 noundef %24, i1 noundef zeroext %26, i32 noundef %27, ptr noundef %18, ptr noundef %28)
  store i32 %29, ptr %19, align 4, !tbaa !52
  %30 = load i32, ptr %19, align 4, !tbaa !52
  %31 = icmp eq i32 -1, %30
  br i1 %31, label %32, label %33

32:                                               ; preds = %8
  store i32 -1, ptr %9, align 4
  store i32 1, ptr %20, align 4
  br label %85

33:                                               ; preds = %8
  %34 = load ptr, ptr %16, align 8, !tbaa !13
  %35 = icmp ne ptr %34, null
  br i1 %35, label %36, label %39

36:                                               ; preds = %33
  %37 = load ptr, ptr %18, align 8, !tbaa !17
  %38 = load ptr, ptr %16, align 8, !tbaa !13
  store ptr %37, ptr %38, align 8, !tbaa !17
  br label %39

39:                                               ; preds = %36, %33
  %40 = load i32, ptr %14, align 4, !tbaa !52
  %41 = load ptr, ptr %18, align 8, !tbaa !17
  %42 = getelementptr inbounds nuw %struct._phar_archive_data, ptr %41, i32 0, i32 22
  %43 = trunc i32 %40 to i16
  %44 = load i16, ptr %42, align 4
  %45 = and i16 %43, 1
  %46 = shl i16 %45, 7
  %47 = and i16 %44, -129
  %48 = or i16 %47, %46
  store i16 %48, ptr %42, align 4
  %49 = load ptr, ptr %18, align 8, !tbaa !17
  %50 = getelementptr inbounds nuw %struct._phar_archive_data, ptr %49, i32 0, i32 22
  %51 = load i16, ptr %50, align 4
  %52 = lshr i16 %51, 5
  %53 = and i16 %52, 1
  %54 = zext i16 %53 to i32
  %55 = icmp ne i32 %54, 0
  br i1 %55, label %56, label %58

56:                                               ; preds = %39
  %57 = load i32, ptr %19, align 4, !tbaa !52
  store i32 %57, ptr %9, align 4
  store i32 1, ptr %20, align 4
  br label %85

58:                                               ; preds = %39
  %59 = load ptr, ptr %18, align 8, !tbaa !17
  %60 = getelementptr inbounds nuw %struct._phar_archive_data, ptr %59, i32 0, i32 22
  %61 = load i16, ptr %60, align 4
  %62 = lshr i16 %61, 3
  %63 = and i16 %62, 1
  %64 = zext i16 %63 to i32
  %65 = icmp ne i32 %64, 0
  br i1 %65, label %66, label %77

66:                                               ; preds = %58
  %67 = load ptr, ptr %18, align 8, !tbaa !17
  %68 = getelementptr inbounds nuw %struct._phar_archive_data, ptr %67, i32 0, i32 22
  %69 = load i16, ptr %68, align 4
  %70 = and i16 %69, -33
  %71 = or i16 %70, 32
  store i16 %71, ptr %68, align 4
  %72 = load ptr, ptr %18, align 8, !tbaa !17
  %73 = getelementptr inbounds nuw %struct._phar_archive_data, ptr %72, i32 0, i32 22
  %74 = load i16, ptr %73, align 4
  %75 = and i16 %74, -65
  %76 = or i16 %75, 0
  store i16 %76, ptr %73, align 4
  store i32 0, ptr %9, align 4
  store i32 1, ptr %20, align 4
  br label %85

77:                                               ; preds = %58
  %78 = load ptr, ptr %17, align 8, !tbaa !15
  %79 = icmp ne ptr %78, null
  br i1 %79, label %80, label %84

80:                                               ; preds = %77
  %81 = load ptr, ptr %17, align 8, !tbaa !15
  %82 = load ptr, ptr %10, align 8, !tbaa !9
  %83 = call i64 (ptr, i64, ptr, ...) @zend_spprintf(ptr noundef %81, i64 noundef 4096, ptr noundef @.str.50, ptr noundef %82)
  br label %84

84:                                               ; preds = %80, %77
  store i32 -1, ptr %9, align 4
  store i32 1, ptr %20, align 4
  br label %85

85:                                               ; preds = %84, %66, %56, %32
  call void @llvm.lifetime.end.p0(i64 4, ptr %19) #14
  call void @llvm.lifetime.end.p0(i64 8, ptr %18) #14
  %86 = load i32, ptr %9, align 4
  ret i32 %86
}