; Function Attrs: nounwind uwtable
define hidden i32 @phar_open_or_create_zip(ptr noundef %0, i64 noundef %1, ptr noundef %2, i64 noundef %3, i32 noundef %4, i32 noundef %5, ptr noundef writeonly captures(address_is_null) %6, ptr noundef %7) local_unnamed_addr #0 {
  %9 = alloca ptr, align 8
  call void @llvm.lifetime.start.p0(i64 8, ptr nonnull %9) #16
  %10 = icmp ne i32 %4, 0
  %11 = call i32 @phar_create_or_parse_filename(ptr noundef %0, i64 noundef %1, ptr noundef %2, i64 noundef %3, i1 noundef zeroext %10, i32 noundef %5, ptr noundef nonnull %9, ptr noundef %7) #16
  %12 = icmp eq i32 %11, -1
  br i1 %12, label %32, label %13

13:                                               ; preds = %8
  %.not = icmp eq ptr %6, null
  %.pre = load ptr, ptr %9, align 8, !tbaa !67
  br i1 %.not, label %15, label %14

14:                                               ; preds = %13
  store ptr %.pre, ptr %6, align 8, !tbaa !67
  br label %15

15:                                               ; preds = %14, %13
  %16 = getelementptr inbounds nuw i8, ptr %.pre, i64 316
  %17 = trunc i32 %4 to i16
  %18 = load i16, ptr %16, align 4
  %19 = shl i16 %17, 7
  %20 = and i16 %19, 128
  %21 = and i16 %18, -129
  %22 = or disjoint i16 %21, %20
  store i16 %22, ptr %16, align 4
  %23 = and i16 %18, 32
  %.not18 = icmp eq i16 %23, 0
  br i1 %.not18, label %24, label %32

24:                                               ; preds = %15
  %25 = and i16 %18, 8
  %.not19 = icmp eq i16 %25, 0
  br i1 %.not19, label %29, label %26

26:                                               ; preds = %24
  %27 = and i16 %22, -97
  %28 = or disjoint i16 %27, 32
  store i16 %28, ptr %16, align 4
  br label %32

29:                                               ; preds = %24
  %.not20 = icmp eq ptr %7, null
  br i1 %.not20, label %32, label %30

30:                                               ; preds = %29
  %31 = call i64 (ptr, i64, ptr, ...) @zend_spprintf(ptr noundef nonnull %7, i64 noundef 4096, ptr noundef nonnull @.str.50, ptr noundef %0) #16
  br label %32

32:                                               ; preds = %29, %30, %15, %8, %26
  %.0 = phi i32 [ 0, %26 ], [ -1, %8 ], [ %11, %15 ], [ -1, %30 ], [ -1, %29 ]
  call void @llvm.lifetime.end.p0(i64 8, ptr nonnull %9) #16
  ret i32 %.0
}